target datalayout = "e-m:e-p270:32:32-p271:32:32-p272:64:64-i64:64-i128:128-f80:128-n8:16:32:64-S128"
target triple = "x86_64-pc-linux-gnu"

@DoingCommandRead = internal global i8 0, align 1
@InterruptPending = external global i32, align 4
@catchupInterruptPending = external global i32, align 4
@notifyInterruptPending = external global i32, align 4
@ProcDiePending = external global i32, align 4
@MyLatch = external global ptr, align 8

; Function Attrs: nounwind uwtable
define dso_local void @ProcessClientReadInterrupt(i1 noundef zeroext %0) #0 {
  %2 = alloca i8, align 1
  %3 = alloca i32, align 4
  %4 = zext i1 %0 to i8
  store i8 %4, ptr %2, align 1
  call void @llvm.lifetime.start.p0(i64 4, ptr %3) #16
  %5 = call ptr @__errno_location() #17
  %6 = load i32, ptr %5, align 4
  store i32 %6, ptr %3, align 4
  %7 = load i8, ptr @DoingCommandRead, align 1, !range !4, !noundef !5
  %8 = trunc i8 %7 to i1
  br i1 %8, label %9, label %29

9:                                                ; preds = %1
  br label %10

10:                                               ; preds = %9
  %11 = load volatile i32, ptr @InterruptPending, align 4
  %12 = icmp ne i32 %11, 0
  %13 = zext i1 %12 to i32
  %14 = sext i32 %13 to i64
  %15 = call i64 @llvm.expect.i64(i64 %14, i64 0)
  %16 = icmp ne i64 %15, 0
  br i1 %16, label %17, label %18

17:                                               ; preds = %10
  call void @ProcessInterrupts()
  br label %18

18:                                               ; preds = %17, %10
  br label %19

19:                                               ; preds = %18
  br label %20

20:                                               ; preds = %19
  %21 = load volatile i32, ptr @catchupInterruptPending, align 4
  %22 = icmp ne i32 %21, 0
  br i1 %22, label %23, label %24

23:                                               ; preds = %20
  call void @ProcessCatchupInterrupt()
  br label %24

24:                                               ; preds = %23, %20
  %25 = load volatile i32, ptr @notifyInterruptPending, align 4
  %26 = icmp ne i32 %25, 0
  br i1 %26, label %27, label %28

27:                                               ; preds = %24
  call void @ProcessNotifyInterrupt(i1 noundef zeroext true)
  br label %28

28:                                               ; preds = %27, %24
  br label %51

29:                                               ; preds = %1
  %30 = load volatile i32, ptr @ProcDiePending, align 4
  %31 = icmp ne i32 %30, 0
  br i1 %31, label %32, label %50

32:                                               ; preds = %29
  %33 = load i8, ptr %2, align 1, !range !4, !noundef !5
  %34 = trunc i8 %33 to i1
  br i1 %34, label %35, label %47

35:                                               ; preds = %32
  br label %36

36:                                               ; preds = %35
  %37 = load volatile i32, ptr @InterruptPending, align 4
  %38 = icmp ne i32 %37, 0
  %39 = zext i1 %38 to i32
  %40 = sext i32 %39 to i64
  %41 = call i64 @llvm.expect.i64(i64 %40, i64 0)
  %42 = icmp ne i64 %41, 0
  br i1 %42, label %43, label %44

43:                                               ; preds = %36
  call void @ProcessInterrupts()
  br label %44

44:                                               ; preds = %43, %36
  br label %45

45:                                               ; preds = %44
  br label %46

46:                                               ; preds = %45
  br label %49

47:                                               ; preds = %32
  %48 = load ptr, ptr @MyLatch, align 8
  call void @SetLatch(ptr noundef %48)
  br label %49

49:                                               ; preds = %47, %46
  br label %50

50:                                               ; preds = %49, %29
  br label %51

51:                                               ; preds = %50, %28
  %52 = load i32, ptr %3, align 4
  %53 = call ptr @__errno_location() #17
  store i32 %52, ptr %53, align 4
  call void @llvm.lifetime.end.p0(i64 4, ptr %3) #16
  ret void
}