; Function Attrs: nounwind uwtable
define dso_local void @ProcessClientReadInterrupt(i1 noundef zeroext %0) local_unnamed_addr #0 {
  %2 = tail call ptr @__errno_location() #21
  %3 = load i32, ptr %2, align 4
  %.b2 = load i1, ptr @DoingCommandRead, align 1
  br i1 %.b2, label %4, label %13

4:                                                ; preds = %1
  %5 = load volatile i32, ptr @InterruptPending, align 4
  %.not4 = icmp eq i32 %5, 0
  br i1 %.not4, label %7, label %6, !prof !4

6:                                                ; preds = %4
  tail call void @ProcessInterrupts()
  br label %7

7:                                                ; preds = %6, %4
  %8 = load volatile i32, ptr @catchupInterruptPending, align 4
  %.not5 = icmp eq i32 %8, 0
  br i1 %.not5, label %10, label %9

9:                                                ; preds = %7
  tail call void @ProcessCatchupInterrupt() #22
  br label %10

10:                                               ; preds = %9, %7
  %11 = load volatile i32, ptr @notifyInterruptPending, align 4
  %.not6 = icmp eq i32 %11, 0
  br i1 %.not6, label %21, label %12

12:                                               ; preds = %10
  tail call void @ProcessNotifyInterrupt(i1 noundef zeroext true) #22
  br label %21

13:                                               ; preds = %1
  %14 = load volatile i32, ptr @ProcDiePending, align 4
  %.not = icmp eq i32 %14, 0
  br i1 %.not, label %21, label %15

15:                                               ; preds = %13
  br i1 %0, label %16, label %19

16:                                               ; preds = %15
  %17 = load volatile i32, ptr @InterruptPending, align 4
  %.not3 = icmp eq i32 %17, 0
  br i1 %.not3, label %21, label %18, !prof !4

18:                                               ; preds = %16
  tail call void @ProcessInterrupts()
  br label %21

19:                                               ; preds = %15
  %20 = load ptr, ptr @MyLatch, align 8
  tail call void @SetLatch(ptr noundef %20) #22
  br label %21

21:                                               ; preds = %13, %16, %18, %19, %10, %12
  store i32 %3, ptr %2, align 4
  ret void
}